; Function Attrs: mustprogress nounwind uwtable
define hidden void @_ZN15ZPhysicalMemory15split_committedEv(ptr dead_on_unwind noalias writable sret(%class.ZPhysicalMemory) align 8 %0, ptr nocapture noundef nonnull align 8 dereferenceable(16) %1) local_unnamed_addr #1 align 2 {
  tail call void @llvm.memset.p0.i64(ptr noundef nonnull align 8 dereferenceable(16) %0, i8 0, i64 16, i1 false)
  %3 = load i32, ptr %1, align 8
  %4 = icmp sgt i32 %3, 0
  br i1 %4, label %.lr.ph, label %._crit_edge

.lr.ph:                                           ; preds = %2
  %5 = getelementptr inbounds i8, ptr %1, i64 8
  br label %6

6:                                                ; preds = %.lr.ph, %17
  %indvars.iv = phi i64 [ 0, %.lr.ph ], [ %indvars.iv.next, %17 ]
  %.0910 = phi i32 [ 0, %.lr.ph ], [ %.1, %17 ]
  %7 = load ptr, ptr %5, align 8
  %8 = getelementptr inbounds %class.ZPhysicalMemorySegment, ptr %7, i64 %indvars.iv
  %9 = getelementptr inbounds i8, ptr %8, i64 16
  %10 = load i8, ptr %9, align 8
  %11 = trunc i8 %10 to i1
  br i1 %11, label %12, label %13

12:                                               ; preds = %6
  tail call void @_ZN15ZPhysicalMemory11add_segmentERK22ZPhysicalMemorySegment(ptr noundef nonnull align 8 dereferenceable(16) %0, ptr noundef nonnull align 8 dereferenceable(17) %8)
  br label %17

13:                                               ; preds = %6
  %14 = add nsw i32 %.0910, 1
  %15 = sext i32 %.0910 to i64
  %16 = getelementptr inbounds %class.ZPhysicalMemorySegment, ptr %7, i64 %15
  tail call void @llvm.memcpy.p0.p0.i64(ptr noundef nonnull align 8 dereferenceable(17) %16, ptr noundef nonnull align 8 dereferenceable(17) %8, i64 17, i1 false)
  br label %17

17:                                               ; preds = %12, %13
  %.1 = phi i32 [ %.0910, %12 ], [ %14, %13 ]
  %indvars.iv.next = add nuw nsw i64 %indvars.iv, 1
  %18 = load i32, ptr %1, align 8
  %19 = sext i32 %18 to i64
  %20 = icmp slt i64 %indvars.iv.next, %19
  br i1 %20, label %6, label %._crit_edge, !llvm.loop !15

._crit_edge:                                      ; preds = %17, %2
  %.09.lcssa = phi i32 [ 0, %2 ], [ %.1, %17 ]
  store i32 %.09.lcssa, ptr %1, align 8
  ret void
}